target datalayout = "e-m:e-p270:32:32-p271:32:32-p272:64:64-i64:64-i128:128-f80:128-n8:16:32:64-S128"
target triple = "x86_64-pc-linux-gnu"

%struct.ident_t = type { i32, i32, i32, i32, ptr }
%"class.ncnn::PReLU" = type { %"class.ncnn::Layer", i32, %"class.ncnn::Mat" }
%"class.ncnn::Layer" = type { ptr, i8, i8, i8, i8, i8, i8, i8, i8, i8, i8, i8, i8, i8, i8, i8, i8, i8, i8, i8, i8, i32, ptr, i32, %"class.std::__cxx11::basic_string", %"class.std::__cxx11::basic_string", %"class.std::vector", %"class.std::vector", %"class.std::vector.3", %"class.std::vector.3" }
%"class.std::__cxx11::basic_string" = type { %"struct.std::__cxx11::basic_string<char>::_Alloc_hider", i64, %union.anon }
%"struct.std::__cxx11::basic_string<char>::_Alloc_hider" = type { ptr }
%union.anon = type { i64, [8 x i8] }
%"class.std::vector" = type { %"struct.std::_Vector_base" }
%"struct.std::_Vector_base" = type { %"struct.std::_Vector_base<int, std::allocator<int>>::_Vector_impl" }
%"struct.std::_Vector_base<int, std::allocator<int>>::_Vector_impl" = type { %"struct.std::_Vector_base<int, std::allocator<int>>::_Vector_impl_data" }
%"struct.std::_Vector_base<int, std::allocator<int>>::_Vector_impl_data" = type { ptr, ptr, ptr }
%"class.std::vector.3" = type { %"struct.std::_Vector_base.4" }
%"struct.std::_Vector_base.4" = type { %"struct.std::_Vector_base<ncnn::Mat, std::allocator<ncnn::Mat>>::_Vector_impl" }
%"struct.std::_Vector_base<ncnn::Mat, std::allocator<ncnn::Mat>>::_Vector_impl" = type { %"struct.std::_Vector_base<ncnn::Mat, std::allocator<ncnn::Mat>>::_Vector_impl_data" }
%"struct.std::_Vector_base<ncnn::Mat, std::allocator<ncnn::Mat>>::_Vector_impl_data" = type { ptr, ptr, ptr }
%"class.ncnn::Mat" = type { ptr, ptr, i64, i32, ptr, i32, i32, i32, i32, i32, i64 }

@1 = private unnamed_addr constant %struct.ident_t { i32 0, i32 514, i32 0, i32 22, ptr @0 }, align 8

; Function Attrs: noinline noreturn nounwind uwtable
define linkonce_odr hidden void @__clang_call_terminate(ptr noundef %0) #7 comdat {
  %2 = call ptr @__cxa_begin_catch(ptr %0) #9
  call void @_ZSt9terminatev() #12
  unreachable
}

; Function Attrs: alwaysinline mustprogress nounwind uwtable
define linkonce_odr hidden noundef nonnull align 4 dereferenceable(4) ptr @_ZNK4ncnn3MatixEm(ptr noundef nonnull align 8 dereferenceable(72) %0, i64 noundef %1) #3 comdat align 2 {
  %3 = alloca ptr, align 8
  %4 = alloca i64, align 8
  store ptr %0, ptr %3, align 8, !tbaa !36
  store i64 %1, ptr %4, align 8, !tbaa !64
  %5 = load ptr, ptr %3, align 8
  %6 = getelementptr inbounds nuw %"class.ncnn::Mat", ptr %5, i32 0, i32 0
  %7 = load ptr, ptr %6, align 8, !tbaa !52
  %8 = load i64, ptr %4, align 8, !tbaa !64
  %9 = getelementptr inbounds nuw float, ptr %7, i64 %8
  ret ptr %9
}

; Function Attrs: alwaysinline mustprogress nounwind uwtable
define linkonce_odr hidden noundef ptr @_ZN4ncnn3Mat3rowEi(ptr noundef nonnull align 8 dereferenceable(72) %0, i32 noundef %1) #3 comdat align 2 {
  %3 = alloca ptr, align 8
  %4 = alloca i32, align 4
  store ptr %0, ptr %3, align 8, !tbaa !36
  store i32 %1, ptr %4, align 4, !tbaa !40
  %5 = load ptr, ptr %3, align 8
  %6 = getelementptr inbounds nuw %"class.ncnn::Mat", ptr %5, i32 0, i32 0
  %7 = load ptr, ptr %6, align 8, !tbaa !52
  %8 = getelementptr inbounds nuw %"class.ncnn::Mat", ptr %5, i32 0, i32 6
  %9 = load i32, ptr %8, align 4, !tbaa !41
  %10 = sext i32 %9 to i64
  %11 = load i32, ptr %4, align 4, !tbaa !40
  %12 = sext i32 %11 to i64
  %13 = mul i64 %10, %12
  %14 = getelementptr inbounds nuw %"class.ncnn::Mat", ptr %5, i32 0, i32 2
  %15 = load i64, ptr %14, align 8, !tbaa !54
  %16 = mul i64 %13, %15
  %17 = getelementptr inbounds nuw i8, ptr %7, i64 %16
  ret ptr %17
}

; Function Attrs: alwaysinline norecurse nounwind uwtable
define internal void @_ZNK4ncnn5PReLU15forward_inplaceERNS_3MatERKNS_6OptionE.omp_outlined.2(ptr noalias noundef %0, ptr noalias noundef %1, ptr noundef nonnull align 4 dereferenceable(4) %2, ptr noundef nonnull align 8 dereferenceable(72) %3, ptr noundef %4, ptr noundef nonnull align 4 dereferenceable(4) %5) #8 personality ptr @__gxx_personality_v0 {
  %7 = alloca ptr, align 8
  %8 = alloca ptr, align 8
  %9 = alloca ptr, align 8
  %10 = alloca ptr, align 8
  %11 = alloca ptr, align 8
  %12 = alloca ptr, align 8
  %13 = alloca ptr, align 8
  %14 = alloca i32, align 4
  %15 = alloca i32, align 4
  %16 = alloca i32, align 4
  %17 = alloca i32, align 4
  %18 = alloca i32, align 4
  %19 = alloca i32, align 4
  %20 = alloca i32, align 4
  %21 = alloca i32, align 4
  %22 = alloca i32, align 4
  %23 = alloca ptr, align 8
  %24 = alloca float, align 4
  %25 = alloca i32, align 4
  store ptr %0, ptr %7, align 8, !tbaa !60
  store ptr %1, ptr %8, align 8, !tbaa !60
  store ptr %2, ptr %9, align 8, !tbaa !60
  store ptr %3, ptr %10, align 8, !tbaa !36
  store ptr %4, ptr %11, align 8, !tbaa !4
  store ptr %5, ptr %12, align 8, !tbaa !60
  %26 = load ptr, ptr %9, align 8, !tbaa !60
  %27 = load ptr, ptr %10, align 8, !tbaa !36
  %28 = load ptr, ptr %11, align 8, !tbaa !4
  %29 = load ptr, ptr %12, align 8, !tbaa !60
  store ptr %27, ptr %13, align 8
  call void @llvm.lifetime.start.p0(i64 4, ptr %14) #9
  call void @llvm.lifetime.start.p0(i64 4, ptr %15) #9
  %30 = load i32, ptr %26, align 4, !tbaa !40
  store i32 %30, ptr %15, align 4, !tbaa !40
  call void @llvm.lifetime.start.p0(i64 4, ptr %16) #9
  %31 = load i32, ptr %15, align 4, !tbaa !40
  %32 = sub nsw i32 %31, 0
  %33 = sdiv i32 %32, 1
  %34 = sub nsw i32 %33, 1
  store i32 %34, ptr %16, align 4, !tbaa !40
  call void @llvm.lifetime.start.p0(i64 4, ptr %17) #9
  store i32 0, ptr %17, align 4, !tbaa !40
  call void @llvm.lifetime.end.p0(i64 4, ptr %17) #9
  %35 = load i32, ptr %15, align 4, !tbaa !40
  %36 = icmp slt i32 0, %35
  br i1 %36, label %37, label %114

37:                                               ; preds = %6
  call void @llvm.lifetime.start.p0(i64 4, ptr %18) #9
  store i32 0, ptr %18, align 4, !tbaa !40
  call void @llvm.lifetime.start.p0(i64 4, ptr %19) #9
  %38 = load i32, ptr %16, align 4, !tbaa !40
  store i32 %38, ptr %19, align 4, !tbaa !40
  call void @llvm.lifetime.start.p0(i64 4, ptr %20) #9
  store i32 1, ptr %20, align 4, !tbaa !40
  call void @llvm.lifetime.start.p0(i64 4, ptr %21) #9
  store i32 0, ptr %21, align 4, !tbaa !40
  call void @llvm.lifetime.start.p0(i64 4, ptr %22) #9
  %39 = load ptr, ptr %7, align 8
  %40 = load i32, ptr %39, align 4, !tbaa !40
  call void @__kmpc_for_static_init_4(ptr @1, i32 %40, i32 34, ptr %21, ptr %18, ptr %19, ptr %20, i32 1, i32 1)
  %41 = load i32, ptr %19, align 4, !tbaa !40
  %42 = load i32, ptr %16, align 4, !tbaa !40
  %43 = icmp sgt i32 %41, %42
  br i1 %43, label %44, label %46

44:                                               ; preds = %37
  %45 = load i32, ptr %16, align 4, !tbaa !40
  br label %48

46:                                               ; preds = %37
  %47 = load i32, ptr %19, align 4, !tbaa !40
  br label %48

48:                                               ; preds = %46, %44
  %49 = phi i32 [ %45, %44 ], [ %47, %46 ]
  store i32 %49, ptr %19, align 4, !tbaa !40
  %50 = load i32, ptr %18, align 4, !tbaa !40
  store i32 %50, ptr %14, align 4, !tbaa !40
  br label %51

51:                                               ; preds = %107, %48
  %52 = load i32, ptr %14, align 4, !tbaa !40
  %53 = load i32, ptr %19, align 4, !tbaa !40
  %54 = icmp sle i32 %52, %53
  br i1 %54, label %56, label %55

55:                                               ; preds = %51
  br label %110

56:                                               ; preds = %51
  %57 = load i32, ptr %14, align 4, !tbaa !40
  %58 = mul nsw i32 %57, 1
  %59 = add nsw i32 0, %58
  store i32 %59, ptr %22, align 4, !tbaa !40
  call void @llvm.lifetime.start.p0(i64 8, ptr %23) #9
  %60 = load ptr, ptr %13, align 8, !tbaa !36
  %61 = load i32, ptr %22, align 4, !tbaa !40
  %62 = invoke noundef ptr @_ZN4ncnn3Mat3rowEi(ptr noundef nonnull align 8 dereferenceable(72) %60, i32 noundef %61)
          to label %63 unwind label %115

63:                                               ; preds = %56
  store ptr %62, ptr %23, align 8, !tbaa !42
  call void @llvm.lifetime.start.p0(i64 4, ptr %24) #9
  %64 = getelementptr inbounds nuw %"class.ncnn::PReLU", ptr %28, i32 0, i32 1
  %65 = load i32, ptr %64, align 8, !tbaa !13
  %66 = icmp sgt i32 %65, 1
  br i1 %66, label %67, label %74

67:                                               ; preds = %63
  %68 = getelementptr inbounds nuw %"class.ncnn::PReLU", ptr %28, i32 0, i32 2
  %69 = load i32, ptr %22, align 4, !tbaa !40
  %70 = sext i32 %69 to i64
  %71 = invoke noundef nonnull align 4 dereferenceable(4) ptr @_ZNK4ncnn3MatixEm(ptr noundef nonnull align 8 dereferenceable(72) %68, i64 noundef %70)
          to label %72 unwind label %115

72:                                               ; preds = %67
  %73 = load float, ptr %71, align 4, !tbaa !46
  br label %79

74:                                               ; preds = %63
  %75 = getelementptr inbounds nuw %"class.ncnn::PReLU", ptr %28, i32 0, i32 2
  %76 = invoke noundef nonnull align 4 dereferenceable(4) ptr @_ZNK4ncnn3MatixEm(ptr noundef nonnull align 8 dereferenceable(72) %75, i64 noundef 0)
          to label %77 unwind label %115

77:                                               ; preds = %74
  %78 = load float, ptr %76, align 4, !tbaa !46
  br label %79

79:                                               ; preds = %77, %72
  %80 = phi fast float [ %73, %72 ], [ %78, %77 ]
  store float %80, ptr %24, align 4, !tbaa !46
  call void @llvm.lifetime.start.p0(i64 4, ptr %25) #9
  store i32 0, ptr %25, align 4, !tbaa !40
  br label %81

81:                                               ; preds = %102, %79
  %82 = load i32, ptr %25, align 4, !tbaa !40
  %83 = load i32, ptr %29, align 4, !tbaa !40
  %84 = icmp slt i32 %82, %83
  br i1 %84, label %86, label %85

85:                                               ; preds = %81
  call void @llvm.lifetime.end.p0(i64 4, ptr %25) #9
  br label %105

86:                                               ; preds = %81
  %87 = load ptr, ptr %23, align 8, !tbaa !42
  %88 = load i32, ptr %25, align 4, !tbaa !40
  %89 = sext i32 %88 to i64
  %90 = getelementptr inbounds float, ptr %87, i64 %89
  %91 = load float, ptr %90, align 4, !tbaa !46
  %92 = fcmp fast olt float %91, 0.000000e+00
  br i1 %92, label %93, label %101

93:                                               ; preds = %86
  %94 = load float, ptr %24, align 4, !tbaa !46
  %95 = load ptr, ptr %23, align 8, !tbaa !42
  %96 = load i32, ptr %25, align 4, !tbaa !40
  %97 = sext i32 %96 to i64
  %98 = getelementptr inbounds float, ptr %95, i64 %97
  %99 = load float, ptr %98, align 4, !tbaa !46
  %100 = fmul fast float %99, %94
  store float %100, ptr %98, align 4, !tbaa !46
  br label %101

101:                                              ; preds = %93, %86
  br label %102

102:                                              ; preds = %101
  %103 = load i32, ptr %25, align 4, !tbaa !40
  %104 = add nsw i32 %103, 1
  store i32 %104, ptr %25, align 4, !tbaa !40
  br label %81, !llvm.loop !67

105:                                              ; preds = %85
  call void @llvm.lifetime.end.p0(i64 4, ptr %24) #9
  call void @llvm.lifetime.end.p0(i64 8, ptr %23) #9
  br label %106

106:                                              ; preds = %105
  br label %107

107:                                              ; preds = %106
  %108 = load i32, ptr %14, align 4, !tbaa !40
  %109 = add nsw i32 %108, 1
  store i32 %109, ptr %14, align 4, !tbaa !40
  br label %51

110:                                              ; preds = %55
  br label %111

111:                                              ; preds = %110
  %112 = load ptr, ptr %7, align 8
  %113 = load i32, ptr %112, align 4, !tbaa !40
  call void @__kmpc_for_static_fini(ptr @1, i32 %113)
  call void @llvm.lifetime.end.p0(i64 4, ptr %22) #9
  call void @llvm.lifetime.end.p0(i64 4, ptr %21) #9
  call void @llvm.lifetime.end.p0(i64 4, ptr %20) #9
  call void @llvm.lifetime.end.p0(i64 4, ptr %19) #9
  call void @llvm.lifetime.end.p0(i64 4, ptr %18) #9
  br label %114

114:                                              ; preds = %111, %6
  call void @llvm.lifetime.end.p0(i64 4, ptr %16) #9
  call void @llvm.lifetime.end.p0(i64 4, ptr %15) #9
  call void @llvm.lifetime.end.p0(i64 4, ptr %14) #9
  ret void

115:                                              ; preds = %74, %67, %56
  %116 = landingpad { ptr, i32 }
          catch ptr null
  %117 = extractvalue { ptr, i32 } %116, 0
  call void @__clang_call_terminate(ptr %117) #12
  unreachable
}