; Function Attrs: alwaysinline norecurse nounwind uwtable
define internal void @_ZNK4ncnn5PReLU15forward_inplaceERNS_3MatERKNS_6OptionE.omp_outlined.2(ptr noalias noundef readonly captures(none) %0, ptr noalias readnone captures(none) %1, ptr noundef nonnull readonly align 4 captures(none) dereferenceable(4) %2, ptr noundef nonnull readonly align 8 captures(none) dereferenceable(72) %3, ptr noundef readonly captures(none) %4, ptr noundef nonnull readonly align 4 captures(none) dereferenceable(4) %5) #9 personality ptr @__gxx_personality_v0 {
  %7 = alloca i32, align 4
  %8 = alloca i32, align 4
  %9 = alloca i32, align 4
  %10 = alloca i32, align 4
  %11 = load i32, ptr %2, align 4, !tbaa !41
  %12 = icmp sgt i32 %11, 0
  br i1 %12, label %13, label %53

13:                                               ; preds = %6
  %14 = add nsw i32 %11, -1
  call void @llvm.lifetime.start.p0(i64 4, ptr nonnull %7) #10
  store i32 0, ptr %7, align 4, !tbaa !41
  call void @llvm.lifetime.start.p0(i64 4, ptr nonnull %8) #10
  store i32 %14, ptr %8, align 4, !tbaa !41
  call void @llvm.lifetime.start.p0(i64 4, ptr nonnull %9) #10
  store i32 1, ptr %9, align 4, !tbaa !41
  call void @llvm.lifetime.start.p0(i64 4, ptr nonnull %10) #10
  store i32 0, ptr %10, align 4, !tbaa !41
  %15 = load i32, ptr %0, align 4, !tbaa !41
  call void @__kmpc_for_static_init_4(ptr nonnull @1, i32 %15, i32 34, ptr nonnull %10, ptr nonnull %7, ptr nonnull %8, ptr nonnull %9, i32 1, i32 1)
  %16 = load i32, ptr %8, align 4, !tbaa !41
  %17 = call i32 @llvm.smin.i32(i32 %16, i32 %14)
  store i32 %17, ptr %8, align 4, !tbaa !41
  %18 = load i32, ptr %7, align 4, !tbaa !41
  %.not26 = icmp sgt i32 %18, %17
  br i1 %.not26, label %._crit_edge30, label %.lr.ph29

.lr.ph29:                                         ; preds = %13
  %19 = load ptr, ptr %3, align 8, !tbaa !16
  %20 = getelementptr inbounds nuw i8, ptr %3, i64 44
  %21 = load i32, ptr %20, align 4, !tbaa !37
  %22 = sext i32 %21 to i64
  %23 = getelementptr inbounds nuw i8, ptr %3, i64 16
  %24 = load i64, ptr %23, align 8, !tbaa !34
  %factor.op.mul = mul i64 %24, %22
  %25 = load i32, ptr %5, align 4, !tbaa !41
  %26 = icmp sgt i32 %25, 0
  br i1 %26, label %.lr.ph29.split.us, label %._crit_edge30

.lr.ph29.split.us:                                ; preds = %.lr.ph29
  %27 = getelementptr inbounds nuw i8, ptr %4, i64 216
  %28 = getelementptr inbounds nuw i8, ptr %4, i64 208
  %29 = load i32, ptr %28, align 8, !tbaa !18
  %30 = icmp sgt i32 %29, 1
  %31 = load ptr, ptr %27, align 8, !tbaa !16
  %32 = sext i32 %18 to i64
  %33 = add nsw i32 %17, 1
  %wide.trip.count44 = zext nneg i32 %25 to i64
  br i1 %30, label %.lr.ph.us.us, label %.lr.ph.us

.lr.ph.us.us:                                     ; preds = %.lr.ph29.split.us, %._crit_edge.us.us
  %indvars.iv46 = phi i64 [ %indvars.iv.next47, %._crit_edge.us.us ], [ %32, %.lr.ph29.split.us ]
  %.reass.us.us = mul i64 %factor.op.mul, %indvars.iv46
  %34 = getelementptr inbounds nuw i8, ptr %19, i64 %.reass.us.us
  %35 = getelementptr inbounds nuw float, ptr %31, i64 %indvars.iv46
  %36 = load float, ptr %35, align 4, !tbaa !46
  br label %37

37:                                               ; preds = %43, %.lr.ph.us.us
  %indvars.iv41 = phi i64 [ %indvars.iv.next42, %43 ], [ 0, %.lr.ph.us.us ]
  %38 = getelementptr inbounds nuw float, ptr %34, i64 %indvars.iv41
  %39 = load float, ptr %38, align 4, !tbaa !46
  %40 = fcmp fast olt float %39, 0.000000e+00
  br i1 %40, label %41, label %43

41:                                               ; preds = %37
  %42 = fmul fast float %39, %36
  store float %42, ptr %38, align 4, !tbaa !46
  br label %43

43:                                               ; preds = %41, %37
  %indvars.iv.next42 = add nuw nsw i64 %indvars.iv41, 1
  %exitcond45.not = icmp eq i64 %indvars.iv.next42, %wide.trip.count44
  br i1 %exitcond45.not, label %._crit_edge.us.us, label %37, !llvm.loop !52

._crit_edge.us.us:                                ; preds = %43
  %indvars.iv.next47 = add nsw i64 %indvars.iv46, 1
  %lftr.wideiv49 = trunc i64 %indvars.iv.next47 to i32
  %exitcond50.not = icmp eq i32 %33, %lftr.wideiv49
  br i1 %exitcond50.not, label %._crit_edge30, label %.lr.ph.us.us

.lr.ph.us:                                        ; preds = %.lr.ph29.split.us, %._crit_edge.us
  %indvars.iv37 = phi i64 [ %indvars.iv.next38, %._crit_edge.us ], [ %32, %.lr.ph29.split.us ]
  %.reass.us = mul i64 %factor.op.mul, %indvars.iv37
  %44 = getelementptr inbounds nuw i8, ptr %19, i64 %.reass.us
  %45 = load float, ptr %31, align 4, !tbaa !46
  br label %46

46:                                               ; preds = %.lr.ph.us, %52
  %indvars.iv = phi i64 [ 0, %.lr.ph.us ], [ %indvars.iv.next, %52 ]
  %47 = getelementptr inbounds nuw float, ptr %44, i64 %indvars.iv
  %48 = load float, ptr %47, align 4, !tbaa !46
  %49 = fcmp fast olt float %48, 0.000000e+00
  br i1 %49, label %50, label %52

50:                                               ; preds = %46
  %51 = fmul fast float %48, %45
  store float %51, ptr %47, align 4, !tbaa !46
  br label %52

52:                                               ; preds = %50, %46
  %indvars.iv.next = add nuw nsw i64 %indvars.iv, 1
  %exitcond.not = icmp eq i64 %indvars.iv.next, %wide.trip.count44
  br i1 %exitcond.not, label %._crit_edge.us, label %46, !llvm.loop !52

._crit_edge.us:                                   ; preds = %52
  %indvars.iv.next38 = add nsw i64 %indvars.iv37, 1
  %lftr.wideiv = trunc i64 %indvars.iv.next38 to i32
  %exitcond40.not = icmp eq i32 %33, %lftr.wideiv
  br i1 %exitcond40.not, label %._crit_edge30, label %.lr.ph.us

._crit_edge30:                                    ; preds = %._crit_edge.us, %._crit_edge.us.us, %.lr.ph29, %13
  call void @__kmpc_for_static_fini(ptr nonnull @1, i32 %15)
  call void @llvm.lifetime.end.p0(i64 4, ptr nonnull %10) #10
  call void @llvm.lifetime.end.p0(i64 4, ptr nonnull %9) #10
  call void @llvm.lifetime.end.p0(i64 4, ptr nonnull %8) #10
  call void @llvm.lifetime.end.p0(i64 4, ptr nonnull %7) #10
  br label %53

53:                                               ; preds = %._crit_edge30, %6
  ret void
}